target datalayout = "e-m:e-p270:32:32-p271:32:32-p272:64:64-i64:64-i128:128-f80:128-n8:16:32:64-S128"
target triple = "x86_64-pc-linux-gnu"

%struct.index_state = type { ptr, i32, i32, i32, i32, ptr, ptr, ptr, %struct.cache_time, i8, i32, %struct.hashmap, %struct.hashmap, %struct.object_id, ptr, ptr, ptr, ptr, ptr, ptr, ptr }
%struct.cache_time = type { i32, i32 }
%struct.hashmap = type { ptr, ptr, ptr, i32, i32, i32, i32, i8 }
%struct.object_id = type { [32 x i8], i32 }
%struct.cache_entry = type { %struct.hashmap_entry, %struct.stat_data, i32, i32, i32, i32, i32, %struct.object_id, [0 x i8] }
%struct.hashmap_entry = type { ptr, i32 }
%struct.stat_data = type { %struct.cache_time, %struct.cache_time, i32, i32, i32, i32, i32 }

@.str.5 = private unnamed_addr constant [12 x i8] c"fsmonitor.c\00", align 1
@.str.27 = private unnamed_addr constant [59 x i8] c"fsmonitor_dirty has more entries than the index (%lu > %u)\00", align 1

; Function Attrs: nounwind uwtable
define internal void @assert_index_minimum(ptr noundef %0, i64 noundef %1) #0 {
  %3 = alloca ptr, align 8
  %4 = alloca i64, align 8
  store ptr %0, ptr %3, align 8, !tbaa !4
  store i64 %1, ptr %4, align 8, !tbaa !10
  %5 = load i64, ptr %4, align 8, !tbaa !10
  %6 = load ptr, ptr %3, align 8, !tbaa !4
  %7 = getelementptr inbounds nuw %struct.index_state, ptr %6, i32 0, i32 2
  %8 = load i32, ptr %7, align 4, !tbaa !43
  %9 = zext i32 %8 to i64
  %10 = icmp ugt i64 %5, %9
  br i1 %10, label %11, label %16

11:                                               ; preds = %2
  %12 = load i64, ptr %4, align 8, !tbaa !10
  %13 = load ptr, ptr %3, align 8, !tbaa !4
  %14 = getelementptr inbounds nuw %struct.index_state, ptr %13, i32 0, i32 2
  %15 = load i32, ptr %14, align 4, !tbaa !43
  call void (ptr, i32, ptr, ...) @BUG_fl(ptr noundef @.str.5, i32 noundef 28, ptr noundef @.str.27, i64 noundef %12, i32 noundef %15) #10
  unreachable

16:                                               ; preds = %2
  ret void
}

; Function Attrs: nounwind uwtable
define internal void @fsmonitor_ewah_callback(i64 noundef %0, ptr noundef %1) #0 {
  %3 = alloca i64, align 8
  %4 = alloca ptr, align 8
  %5 = alloca ptr, align 8
  %6 = alloca ptr, align 8
  store i64 %0, ptr %3, align 8, !tbaa !10
  store ptr %1, ptr %4, align 8, !tbaa !9
  call void @llvm.lifetime.start.p0(i64 8, ptr %5) #8
  %7 = load ptr, ptr %4, align 8, !tbaa !9
  store ptr %7, ptr %5, align 8, !tbaa !4
  call void @llvm.lifetime.start.p0(i64 8, ptr %6) #8
  %8 = load ptr, ptr %5, align 8, !tbaa !4
  %9 = load i64, ptr %3, align 8, !tbaa !10
  %10 = add i64 %9, 1
  call void @assert_index_minimum(ptr noundef %8, i64 noundef %10)
  %11 = load ptr, ptr %5, align 8, !tbaa !4
  %12 = getelementptr inbounds nuw %struct.index_state, ptr %11, i32 0, i32 0
  %13 = load ptr, ptr %12, align 8, !tbaa !48
  %14 = load i64, ptr %3, align 8, !tbaa !10
  %15 = getelementptr inbounds nuw ptr, ptr %13, i64 %14
  %16 = load ptr, ptr %15, align 8, !tbaa !49
  store ptr %16, ptr %6, align 8, !tbaa !49
  %17 = load ptr, ptr %6, align 8, !tbaa !49
  %18 = getelementptr inbounds nuw %struct.cache_entry, ptr %17, i32 0, i32 3
  %19 = load i32, ptr %18, align 8, !tbaa !14
  %20 = and i32 %19, -2097153
  store i32 %20, ptr %18, align 8, !tbaa !14
  call void @llvm.lifetime.end.p0(i64 8, ptr %6) #8
  call void @llvm.lifetime.end.p0(i64 8, ptr %5) #8
  ret void
}