; Function Attrs: nounwind uwtable
define internal void @fsmonitor_ewah_callback(i64 noundef %0, ptr noundef readonly captures(none) %1) #0 {
  %3 = add i64 %0, 1
  %4 = getelementptr i8, ptr %1, i64 12
  %.val = load i32, ptr %4, align 4, !tbaa !34
  %5 = zext i32 %.val to i64
  %6 = icmp ugt i64 %3, %5
  br i1 %6, label %7, label %assert_index_minimum.exit

7:                                                ; preds = %2
  tail call void (ptr, i32, ptr, ...) @BUG_fl(ptr noundef nonnull @.str.5, i32 noundef 28, ptr noundef nonnull @.str.27, i64 noundef %3, i32 noundef %.val) #10
  unreachable

assert_index_minimum.exit:                        ; preds = %2
  %8 = load ptr, ptr %1, align 8, !tbaa !37
  %9 = getelementptr inbounds nuw ptr, ptr %8, i64 %0
  %10 = load ptr, ptr %9, align 8, !tbaa !38
  %11 = getelementptr inbounds nuw i8, ptr %10, i64 56
  %12 = load i32, ptr %11, align 8, !tbaa !40
  %13 = and i32 %12, -2097153
  store i32 %13, ptr %11, align 8, !tbaa !40
  ret void
}